; Function Attrs: nounwind uwtable
define noalias ptr @l_Lean_IR_ExpandResetReuse_releaseUnreadFields(ptr noundef %0, ptr noundef readonly captures(none) %1, ptr noundef %2, ptr noundef readnone captures(none) %3, ptr noundef %4) local_unnamed_addr #1 {
lean_dec.exit:
  %5 = getelementptr i8, ptr %1, i64 8
  %.val = load i64, ptr %5, align 8, !tbaa !9
  %6 = shl i64 %.val, 1
  %7 = or disjoint i64 %6, 1
  %8 = inttoptr i64 %7 to ptr
  %9 = tail call ptr @l_Nat_foldM_loop___at_Lean_IR_ExpandResetReuse_releaseUnreadFields___spec__1(ptr noundef %0, ptr noundef %1, ptr noundef nonnull %8, ptr noundef nonnull %8, ptr nonnull poison, ptr noundef %2, ptr poison, ptr noundef %4)
  ret ptr %9
}